Certificate:
    Data:
        Version: 3 (0x2)
        Serial Number: 1 (0x1)
        Signature Algorithm: sha512WithRSAEncryption
        Issuer: CN=Daidone CA, ST=Italy, C=EU/emailAddress=daidone@mycert.it, O=Root Cert Authority
        Validity
            Not Before: Oct 28 11:54:29 2024 GMT
            Not After : Oct 28 11:54:29 2025 GMT
        Subject: CN=OpenGemini.it, C=IT, ST=Rome, O=Root Cert Authority, OU=OpenGemini/emailAddress=openGemini@gmail.it
        Subject Public Key Info:
            Public Key Algorithm: rsaEncryption
                Public-Key: (2048 bit)
                Modulus:
                    00:cb:4b:c8:58:47:e8:b6:6a:90:b2:d4:e0:58:4d:
                    10:72:84:e1:0c:f6:4c:84:4f:6c:e2:61:5c:38:93:
                    0e:92:93:aa:d3:2a:61:2c:65:34:24:e1:b9:a2:c6:
                    7a:d9:7e:c6:71:9e:b0:8e:53:fc:f0:a5:b7:d7:73:
                    63:ba:38:5d:ae:f2:75:91:e5:5c:44:14:59:1a:43:
                    fb:8b:44:27:d2:0e:fc:77:da:0f:c4:c3:f9:10:1b:
                    c4:48:39:40:50:ae:fb:e3:1d:b2:63:58:14:ab:45:
                    32:e2:61:46:06:f4:b4:b6:85:d4:d4:ad:54:fd:bb:
                    43:77:34:b0:4f:5c:2f:c2:c3:d1:37:15:61:04:65:
                    1b:49:7b:b1:63:c4:fc:95:71:e3:5e:48:23:62:ce:
                    12:71:61:bb:be:53:d1:af:d3:21:57:dc:03:0c:94:
                    4f:21:e0:dd:f7:74:99:41:51:f3:7e:1d:5e:f6:45:
                    14:83:a6:f1:53:c7:c4:ce:c3:40:9d:96:55:d4:d4:
                    20:8c:64:4b:94:f7:a7:25:1a:cb:7b:73:5b:df:5c:
                    aa:e4:b3:2c:33:26:5b:33:b6:a0:5e:c3:a9:de:d0:
                    43:ce:0f:7e:6c:05:3f:b4:91:66:54:ec:b2:9c:fe:
                    e6:28:1e:df:22:cb:b1:66:aa:e0:2b:47:42:3a:7d:
                    16:2b
                Exponent: 65537 (0x10001)
        X509v3 extensions:
            X509v3 Basic Constraints: 
                CA:FALSE
            X509v3 Subject Key Identifier: 
                37:CA:AD:BA:BE:F6:49:3F:5C:EC:5F:FC:DE:2E:52:02:19:AF:C4:98
            X509v3 Authority Key Identifier: 
                74:B0:E1:24:92:70:10:ED:31:30:9B:C8:B3:3D:2D:0B:E5:05:2E:81
    Signature Algorithm: sha512WithRSAEncryption
    Signature Value:
        4e:10:c4:12:b9:b2:14:66:fe:f6:2d:1b:32:14:19:5f:88:ff:
        89:2a:ad:f4:e5:c8:dc:dd:5e:92:60:e8:49:20:11:e1:42:0e:
        40:83:44:4c:7c:be:d8:3c:26:35:18:eb:9f:93:14:af:5d:1e:
        3b:f9:c4:af:28:8d:40:1f:48:91:21:10:e5:27:e7:3f:9b:15:
        db:63:7c:22:e0:00:62:f7:85:e6:b2:e4:88:a6:5e:5a:af:e5:
        3c:52:24:9f:5b:06:71:6c:99:1b:03:eb:bd:5b:76:ba:c9:1b:
        a8:97:1f:23:92:b5:eb:48:af:4c:5b:3c:b3:5e:cc:b2:da:48:
        0e:38:12:90:b5:82:a2:a9:b0:90:1e:a1:00:aa:4c:9e:75:dc:
        7b:9b:68:4b:c9:34:80:81:56:45:3a:d1:cc:1d:0a:a3:94:70:
        3c:e8:ae:51:4a:38:72:d0:16:46:ae:69:5e:5a:af:d7:95:a7:
        67:81:87:61:4f:6f:53:5c:c3:3f:24:1c:a8:d0:3f:1f:1c:0c:
        8c:95:1a:f3:df:db:41:09:36:e2:64:f4:2c:30:6e:b3:9e:c2:
        27:de:45:9e:bb:93:3a:a7:86:50:2c:9d:ac:72:94:28:ac:73:
        91:1e:a3:82:cf:a2:1e:9e:01:3c:f9:16:48:9d:86:d8:e0:7d:
        11:cc:48:9b
-----BEGIN CERTIFICATE-----
MIIDxjCCAq6gAwIBAgIBATANBgkqhkiG9w0BAQ0FADByMRMwEQYDVQQDDApEYWlk
b25lIENBMQ4wDAYDVQQIDAVJdGFseTELMAkGA1UEBhMCRVUxIDAeBgkqhkiG9w0B
CQEWEWRhaWRvbmVAbXljZXJ0Lml0MRwwGgYDVQQKDBNSb290IENlcnQgQXV0aG9y
aXR5MB4XDTI0MTAyODExNTQyOVoXDTI1MTAyODExNTQyOVowgYsxFjAUBgNVBAMM
DU9wZW5HZW1pbmkuaXQxCzAJBgNVBAYTAklUMQ0wCwYDVQQIDARSb21lMRwwGgYD
VQQKDBNSb290IENlcnQgQXV0aG9yaXR5MRMwEQYDVQQLDApPcGVuR2VtaW5pMSIw
IAYJKoZIhvcNAQkBFhNvcGVuR2VtaW5pQGdtYWlsLml0MIIBIjANBgkqhkiG9w0B
AQEFAAOCAQ8AMIIBCgKCAQEAy0vIWEfotmqQstTgWE0QcoThDPZMhE9s4mFcOJMO
kpOq0yphLGU0JOG5osZ62X7GcZ6wjlP88KW313NjujhdrvJ1keVcRBRZGkP7i0Qn
0g78d9oPxMP5EBvESDlAUK774x2yY1gUq0Uy4mFGBvS0toXU1K1U/btDdzSwT1wv
wsPRNxVhBGUbSXuxY8T8lXHjXkgjYs4ScWG7vlPRr9MhV9wDDJRPIeDd93SZQVHz
fh1e9kUUg6bxU8fEzsNAnZZV1NQgjGRLlPenJRrLe3Nb31yq5LMsMyZbM7agXsOp
3tBDzg9+bAU/tJFmVOyynP7mKB7fIsuxZqrgK0dCOn0WKwIDAQABo00wSzAJBgNV
HRMEAjAAMB0GA1UdDgQWBBQ3yq26vvZJP1zsX/zeLlICGa/EmDAfBgNVHSMEGDAW
gBR0sOEkknAQ7TEwm8izPS0L5QUugTANBgkqhkiG9w0BAQ0FAAOCAQEAThDEErmy
FGb+9i0bMhQZX4j/iSqt9OXI3N1ekmDoSSAR4UIOQINETHy+2DwmNRjrn5MUr10e
O/nEryiNQB9IkSEQ5SfnP5sV22N8IuAAYveF5rLkiKZeWq/lPFIkn1sGcWyZGwPr
vVt2uskbqJcfI5K160ivTFs8s17MstpIDjgSkLWCoqmwkB6hAKpMnnXce5toS8k0
gIFWRTrRzB0Ko5RwPOiuUUo4ctAWRq5pXlqv15WnZ4GHYU9vU1zDPyQcqNA/HxwM
jJUa89/bQQk24mT0LDBus57CJ95FnruTOqeGUCydrHKUKKxzkR6jgs+iHp4BPPkW
SJ2G2OB9EcxImw==
-----END CERTIFICATE-----
